target datalayout = "e-m:e-p270:32:32-p271:32:32-p272:64:64-i64:64-i128:128-f80:128-n8:16:32:64-S128"
target triple = "x86_64-unknown-linux-gnu"

%struct.Type = type { i32, i32, i32, i8, i8, ptr, ptr, ptr, ptr, i32, ptr, ptr, ptr, i8, i8, ptr, ptr, i8, ptr }
%struct.Member = type { ptr, ptr, ptr, ptr, i32, i32, i32, i8, i32, i32 }

; Function Attrs: nounwind uwtable
define internal ptr @union_decl(ptr noundef %rest, ptr noundef %tok) #0 {
entry:
  %retval = alloca ptr, align 8
  %rest.addr = alloca ptr, align 8
  %tok.addr = alloca ptr, align 8
  %ty = alloca ptr, align 8
  %mem = alloca ptr, align 8
  store ptr %rest, ptr %rest.addr, align 8
  store ptr %tok, ptr %tok.addr, align 8
  %0 = load ptr, ptr %rest.addr, align 8
  %1 = load ptr, ptr %tok.addr, align 8
  %call = call ptr @struct_union_decl(ptr noundef %0, ptr noundef %1)
  store ptr %call, ptr %ty, align 8
  %2 = load ptr, ptr %ty, align 8
  %kind = getelementptr inbounds %struct.Type, ptr %2, i32 0, i32 0
  store i32 15, ptr %kind, align 8
  %3 = load ptr, ptr %ty, align 8
  %size = getelementptr inbounds %struct.Type, ptr %3, i32 0, i32 1
  %4 = load i32, ptr %size, align 4
  %cmp = icmp slt i32 %4, 0
  br i1 %cmp, label %if.then, label %if.end

if.then:                                          ; preds = %entry
  %5 = load ptr, ptr %ty, align 8
  store ptr %5, ptr %retval, align 8
  br label %return

if.end:                                           ; preds = %entry
  %6 = load ptr, ptr %ty, align 8
  %members = getelementptr inbounds %struct.Type, ptr %6, i32 0, i32 12
  %7 = load ptr, ptr %members, align 8
  store ptr %7, ptr %mem, align 8
  br label %for.cond

for.cond:                                         ; preds = %for.inc, %if.end
  %8 = load ptr, ptr %mem, align 8
  %tobool = icmp ne ptr %8, null
  br i1 %tobool, label %for.body, label %for.end

for.body:                                         ; preds = %for.cond
  %9 = load ptr, ptr %ty, align 8
  %align = getelementptr inbounds %struct.Type, ptr %9, i32 0, i32 2
  %10 = load i32, ptr %align, align 8
  %11 = load ptr, ptr %mem, align 8
  %align1 = getelementptr inbounds %struct.Member, ptr %11, i32 0, i32 5
  %12 = load i32, ptr %align1, align 4
  %cmp2 = icmp slt i32 %10, %12
  br i1 %cmp2, label %if.then3, label %if.end6

if.then3:                                         ; preds = %for.body
  %13 = load ptr, ptr %mem, align 8
  %align4 = getelementptr inbounds %struct.Member, ptr %13, i32 0, i32 5
  %14 = load i32, ptr %align4, align 4
  %15 = load ptr, ptr %ty, align 8
  %align5 = getelementptr inbounds %struct.Type, ptr %15, i32 0, i32 2
  store i32 %14, ptr %align5, align 8
  br label %if.end6

if.end6:                                          ; preds = %if.then3, %for.body
  %16 = load ptr, ptr %ty, align 8
  %size7 = getelementptr inbounds %struct.Type, ptr %16, i32 0, i32 1
  %17 = load i32, ptr %size7, align 4
  %18 = load ptr, ptr %mem, align 8
  %ty8 = getelementptr inbounds %struct.Member, ptr %18, i32 0, i32 1
  %19 = load ptr, ptr %ty8, align 8
  %size9 = getelementptr inbounds %struct.Type, ptr %19, i32 0, i32 1
  %20 = load i32, ptr %size9, align 4
  %cmp10 = icmp slt i32 %17, %20
  br i1 %cmp10, label %if.then11, label %if.end15

if.then11:                                        ; preds = %if.end6
  %21 = load ptr, ptr %mem, align 8
  %ty12 = getelementptr inbounds %struct.Member, ptr %21, i32 0, i32 1
  %22 = load ptr, ptr %ty12, align 8
  %size13 = getelementptr inbounds %struct.Type, ptr %22, i32 0, i32 1
  %23 = load i32, ptr %size13, align 4
  %24 = load ptr, ptr %ty, align 8
  %size14 = getelementptr inbounds %struct.Type, ptr %24, i32 0, i32 1
  store i32 %23, ptr %size14, align 4
  br label %if.end15

if.end15:                                         ; preds = %if.then11, %if.end6
  br label %for.inc

for.inc:                                          ; preds = %if.end15
  %25 = load ptr, ptr %mem, align 8
  %next = getelementptr inbounds %struct.Member, ptr %25, i32 0, i32 0
  %26 = load ptr, ptr %next, align 8
  store ptr %26, ptr %mem, align 8
  br label %for.cond, !llvm.loop !54

for.end:                                          ; preds = %for.cond
  %27 = load ptr, ptr %ty, align 8
  %size16 = getelementptr inbounds %struct.Type, ptr %27, i32 0, i32 1
  %28 = load i32, ptr %size16, align 4
  %29 = load ptr, ptr %ty, align 8
  %align17 = getelementptr inbounds %struct.Type, ptr %29, i32 0, i32 2
  %30 = load i32, ptr %align17, align 8
  %call18 = call i32 @align_to(i32 noundef %28, i32 noundef %30)
  %31 = load ptr, ptr %ty, align 8
  %size19 = getelementptr inbounds %struct.Type, ptr %31, i32 0, i32 1
  store i32 %call18, ptr %size19, align 4
  %32 = load ptr, ptr %ty, align 8
  store ptr %32, ptr %retval, align 8
  br label %return

return:                                           ; preds = %for.end, %if.then
  %33 = load ptr, ptr %retval, align 8
  ret ptr %33
}