; Function Attrs: nounwind uwtable
define internal fastcc noundef ptr @union_decl(ptr nocapture noundef writeonly %rest, ptr noundef %tok) unnamed_addr #0 {
entry:
  %call = tail call fastcc ptr @struct_union_decl(ptr noundef %rest, ptr noundef %tok)
  store i32 15, ptr %call, align 8
  %size = getelementptr inbounds %struct.Type, ptr %call, i64 0, i32 1
  %0 = load i32, ptr %size, align 4
  %cmp = icmp slt i32 %0, 0
  br i1 %cmp, label %return, label %if.end

if.end:                                           ; preds = %entry
  %members = getelementptr inbounds %struct.Type, ptr %call, i64 0, i32 12
  %mem.018 = load ptr, ptr %members, align 8
  %tobool.not19 = icmp eq ptr %mem.018, null
  %align17.phi.trans.insert = getelementptr inbounds %struct.Type, ptr %call, i64 0, i32 2
  %.pre = load i32, ptr %align17.phi.trans.insert, align 8
  br i1 %tobool.not19, label %for.end, label %for.body

for.body:                                         ; preds = %if.end, %for.inc
  %1 = phi i32 [ %7, %for.inc ], [ %0, %if.end ]
  %2 = phi i32 [ %4, %for.inc ], [ %.pre, %if.end ]
  %mem.020 = phi ptr [ %mem.0, %for.inc ], [ %mem.018, %if.end ]
  %align1 = getelementptr inbounds %struct.Member, ptr %mem.020, i64 0, i32 5
  %3 = load i32, ptr %align1, align 4
  %cmp2 = icmp slt i32 %2, %3
  br i1 %cmp2, label %if.then3, label %if.end6

if.then3:                                         ; preds = %for.body
  store i32 %3, ptr %align17.phi.trans.insert, align 8
  br label %if.end6

if.end6:                                          ; preds = %if.then3, %for.body
  %4 = phi i32 [ %3, %if.then3 ], [ %2, %for.body ]
  %ty8 = getelementptr inbounds %struct.Member, ptr %mem.020, i64 0, i32 1
  %5 = load ptr, ptr %ty8, align 8
  %size9 = getelementptr inbounds %struct.Type, ptr %5, i64 0, i32 1
  %6 = load i32, ptr %size9, align 4
  %cmp10 = icmp slt i32 %1, %6
  br i1 %cmp10, label %if.then11, label %for.inc

if.then11:                                        ; preds = %if.end6
  store i32 %6, ptr %size, align 4
  br label %for.inc

for.inc:                                          ; preds = %if.end6, %if.then11
  %7 = phi i32 [ %1, %if.end6 ], [ %6, %if.then11 ]
  %mem.0 = load ptr, ptr %mem.020, align 8
  %tobool.not = icmp eq ptr %mem.0, null
  br i1 %tobool.not, label %for.end, label %for.body, !llvm.loop !57

for.end:                                          ; preds = %for.inc, %if.end
  %8 = phi i32 [ %.pre, %if.end ], [ %4, %for.inc ]
  %9 = phi i32 [ %0, %if.end ], [ %7, %for.inc ]
  %call18 = tail call i32 @align_to(i32 noundef %9, i32 noundef %8) #13
  store i32 %call18, ptr %size, align 4
  br label %return

return:                                           ; preds = %entry, %for.end
  ret ptr %call
}